target datalayout = "e-m:e-p270:32:32-p271:32:32-p272:64:64-i64:64-i128:128-f80:128-n8:16:32:64-S128"
target triple = "x86_64-pc-linux-gnu"

%union.pthread_mutex_t = type { %struct.__pthread_mutex_s }
%struct.__pthread_mutex_s = type { i32, i32, i32, i32, i32, i16, i16, %struct.__pthread_internal_list }
%struct.__pthread_internal_list = type { ptr, ptr }

@session_lock = internal global %union.pthread_mutex_t zeroinitializer, align 8
@initRefCount = internal global i32 0, align 4
@inits_count_mutex = internal global %union.pthread_mutex_t zeroinitializer, align 8
@session_lock_valid = internal global i32 0, align 4

; Function Attrs: nounwind uwtable
define void @wolfSSL_CTX_free(ptr noundef %0) #0 {
  %2 = alloca ptr, align 8
  store ptr %0, ptr %2, align 8, !tbaa !24
  br label %3

3:                                                ; preds = %1
  br label %4

4:                                                ; preds = %3
  %5 = load ptr, ptr %2, align 8, !tbaa !24
  %6 = icmp ne ptr %5, null
  br i1 %6, label %7, label %9

7:                                                ; preds = %4
  %8 = load ptr, ptr %2, align 8, !tbaa !24
  call void @FreeSSL_Ctx(ptr noundef %8)
  br label %9

9:                                                ; preds = %7, %4
  br label %10

10:                                               ; preds = %9
  br label %11

11:                                               ; preds = %10
  ret void
}

; Function Attrs: nounwind uwtable
define i32 @wolfSSL_Init() #0 {
  %1 = alloca i32, align 4
  %2 = alloca i32, align 4
  %3 = alloca i32, align 4
  call void @llvm.lifetime.start.p0(i64 4, ptr %2) #9
  store i32 1, ptr %2, align 4, !tbaa !7
  br label %4

4:                                                ; preds = %0
  br label %5

5:                                                ; preds = %4
  br label %6

6:                                                ; preds = %5
  %7 = call i32 @wc_LockMutex(ptr noundef @inits_count_mutex)
  %8 = icmp ne i32 %7, 0
  br i1 %8, label %9, label %13

9:                                                ; preds = %6
  br label %10

10:                                               ; preds = %9
  br label %11

11:                                               ; preds = %10
  br label %12

12:                                               ; preds = %11
  store i32 -106, ptr %1, align 4
  store i32 1, ptr %3, align 4
  br label %54

13:                                               ; preds = %6
  %14 = load i32, ptr %2, align 4, !tbaa !7
  %15 = icmp eq i32 %14, 1
  br i1 %15, label %16, label %39

16:                                               ; preds = %13
  %17 = load volatile i32, ptr @initRefCount, align 4, !tbaa !7
  %18 = icmp eq i32 %17, 0
  br i1 %18, label %19, label %39

19:                                               ; preds = %16
  %20 = call i32 @wolfCrypt_Init()
  %21 = icmp ne i32 %20, 0
  br i1 %21, label %22, label %26

22:                                               ; preds = %19
  br label %23

23:                                               ; preds = %22
  br label %24

24:                                               ; preds = %23
  br label %25

25:                                               ; preds = %24
  store i32 -228, ptr %2, align 4, !tbaa !7
  br label %26

26:                                               ; preds = %25, %19
  %27 = load i32, ptr %2, align 4, !tbaa !7
  %28 = icmp eq i32 %27, 1
  br i1 %28, label %29, label %38

29:                                               ; preds = %26
  %30 = call i32 @wc_InitRwLock(ptr noundef @session_lock)
  %31 = icmp ne i32 %30, 0
  br i1 %31, label %32, label %36

32:                                               ; preds = %29
  br label %33

33:                                               ; preds = %32
  br label %34

34:                                               ; preds = %33
  br label %35

35:                                               ; preds = %34
  store i32 -106, ptr %2, align 4, !tbaa !7
  br label %37

36:                                               ; preds = %29
  store i32 1, ptr @session_lock_valid, align 4, !tbaa !7
  br label %37

37:                                               ; preds = %36, %35
  br label %38

38:                                               ; preds = %37, %26
  br label %39

39:                                               ; preds = %38, %16, %13
  %40 = load i32, ptr %2, align 4, !tbaa !7
  %41 = icmp eq i32 %40, 1
  br i1 %41, label %42, label %45

42:                                               ; preds = %39
  %43 = load volatile i32, ptr @initRefCount, align 4, !tbaa !7
  %44 = add nsw i32 %43, 1
  store volatile i32 %44, ptr @initRefCount, align 4, !tbaa !7
  br label %46

45:                                               ; preds = %39
  store volatile i32 1, ptr @initRefCount, align 4, !tbaa !7
  br label %46

46:                                               ; preds = %45, %42
  %47 = call i32 @wc_UnLockMutex(ptr noundef @inits_count_mutex)
  %48 = load i32, ptr %2, align 4, !tbaa !7
  %49 = icmp ne i32 %48, 1
  br i1 %49, label %50, label %52

50:                                               ; preds = %46
  %51 = call i32 @wolfSSL_Cleanup()
  br label %52

52:                                               ; preds = %50, %46
  %53 = load i32, ptr %2, align 4, !tbaa !7
  store i32 %53, ptr %1, align 4
  store i32 1, ptr %3, align 4
  br label %54

54:                                               ; preds = %52, %12
  call void @llvm.lifetime.end.p0(i64 4, ptr %2) #9
  %55 = load i32, ptr %1, align 4
  ret i32 %55
}

; Function Attrs: nounwind uwtable
define ptr @wolfSSL_CTX_new_ex(ptr noundef %0, ptr noundef %1) #0 {
  %3 = alloca ptr, align 8
  %4 = alloca ptr, align 8
  %5 = alloca ptr, align 8
  %6 = alloca ptr, align 8
  %7 = alloca i32, align 4
  %8 = alloca ptr, align 8
  %9 = alloca i32, align 4
  %10 = alloca i32, align 4
  %11 = alloca ptr, align 8
  store ptr %0, ptr %4, align 8, !tbaa !33
  store ptr %1, ptr %5, align 8, !tbaa !3
  call void @llvm.lifetime.start.p0(i64 8, ptr %6) #9
  store ptr null, ptr %6, align 8, !tbaa !24
  br label %12

12:                                               ; preds = %2
  br label %13

13:                                               ; preds = %12
  br label %14

14:                                               ; preds = %13
  %15 = load volatile i32, ptr @initRefCount, align 4, !tbaa !7
  %16 = icmp eq i32 %15, 0
  br i1 %16, label %17, label %41

17:                                               ; preds = %14
  call void @llvm.lifetime.start.p0(i64 4, ptr %7) #9
  %18 = call i32 @wolfSSL_Init()
  store i32 %18, ptr %7, align 4, !tbaa !7
  %19 = load i32, ptr %7, align 4, !tbaa !7
  %20 = icmp ne i32 %19, 1
  br i1 %20, label %21, label %37

21:                                               ; preds = %17
  br label %22

22:                                               ; preds = %21
  br label %23

23:                                               ; preds = %22
  br label %24

24:                                               ; preds = %23
  br label %25

25:                                               ; preds = %24
  br label %26

26:                                               ; preds = %25
  br label %27

27:                                               ; preds = %26
  br label %28

28:                                               ; preds = %27
  call void @llvm.lifetime.start.p0(i64 8, ptr %8) #9
  %29 = load ptr, ptr %4, align 8, !tbaa !33
  store ptr %29, ptr %8, align 8, !tbaa !3
  %30 = load ptr, ptr %8, align 8, !tbaa !3
  %31 = icmp ne ptr %30, null
  br i1 %31, label %32, label %34

32:                                               ; preds = %28
  %33 = load ptr, ptr %8, align 8, !tbaa !3
  call void @wolfSSL_Free(ptr noundef %33)
  br label %34

34:                                               ; preds = %32, %28
  call void @llvm.lifetime.end.p0(i64 8, ptr %8) #9
  br label %35

35:                                               ; preds = %34
  br label %36

36:                                               ; preds = %35
  store ptr null, ptr %3, align 8
  store i32 1, ptr %9, align 4
  br label %38

37:                                               ; preds = %17
  store i32 0, ptr %9, align 4
  br label %38

38:                                               ; preds = %37, %36
  call void @llvm.lifetime.end.p0(i64 4, ptr %7) #9
  %39 = load i32, ptr %9, align 4
  switch i32 %39, label %81 [
    i32 0, label %40
  ]

40:                                               ; preds = %38
  br label %41

41:                                               ; preds = %40, %14
  %42 = load ptr, ptr %4, align 8, !tbaa !33
  %43 = icmp eq ptr %42, null
  br i1 %43, label %44, label %46

44:                                               ; preds = %41
  %45 = load ptr, ptr %6, align 8, !tbaa !24
  store ptr %45, ptr %3, align 8
  store i32 1, ptr %9, align 4
  br label %81

46:                                               ; preds = %41
  %47 = call ptr @wolfSSL_Malloc(i64 noundef 304)
  store ptr %47, ptr %6, align 8, !tbaa !24
  %48 = load ptr, ptr %6, align 8, !tbaa !24
  %49 = icmp ne ptr %48, null
  br i1 %49, label %50, label %63

50:                                               ; preds = %46
  call void @llvm.lifetime.start.p0(i64 4, ptr %10) #9
  %51 = load ptr, ptr %6, align 8, !tbaa !24
  %52 = load ptr, ptr %4, align 8, !tbaa !33
  %53 = load ptr, ptr %5, align 8, !tbaa !3
  %54 = call i32 @InitSSL_Ctx(ptr noundef %51, ptr noundef %52, ptr noundef %53)
  store i32 %54, ptr %10, align 4, !tbaa !7
  %55 = load i32, ptr %10, align 4, !tbaa !7
  %56 = icmp slt i32 %55, 0
  br i1 %56, label %57, label %62

57:                                               ; preds = %50
  br label %58

58:                                               ; preds = %57
  br label %59

59:                                               ; preds = %58
  br label %60

60:                                               ; preds = %59
  %61 = load ptr, ptr %6, align 8, !tbaa !24
  call void @wolfSSL_CTX_free(ptr noundef %61)
  store ptr null, ptr %6, align 8, !tbaa !24
  br label %62

62:                                               ; preds = %60, %50
  call void @llvm.lifetime.end.p0(i64 4, ptr %10) #9
  br label %76

63:                                               ; preds = %46
  br label %64

64:                                               ; preds = %63
  br label %65

65:                                               ; preds = %64
  br label %66

66:                                               ; preds = %65
  br label %67

67:                                               ; preds = %66
  call void @llvm.lifetime.start.p0(i64 8, ptr %11) #9
  %68 = load ptr, ptr %4, align 8, !tbaa !33
  store ptr %68, ptr %11, align 8, !tbaa !3
  %69 = load ptr, ptr %11, align 8, !tbaa !3
  %70 = icmp ne ptr %69, null
  br i1 %70, label %71, label %73

71:                                               ; preds = %67
  %72 = load ptr, ptr %11, align 8, !tbaa !3
  call void @wolfSSL_Free(ptr noundef %72)
  br label %73

73:                                               ; preds = %71, %67
  call void @llvm.lifetime.end.p0(i64 8, ptr %11) #9
  br label %74

74:                                               ; preds = %73
  br label %75

75:                                               ; preds = %74
  br label %76

76:                                               ; preds = %75, %62
  br label %77

77:                                               ; preds = %76
  br label %78

78:                                               ; preds = %77
  br label %79

79:                                               ; preds = %78
  %80 = load ptr, ptr %6, align 8, !tbaa !24
  store ptr %80, ptr %3, align 8
  store i32 1, ptr %9, align 4
  br label %81

81:                                               ; preds = %79, %44, %38
  call void @llvm.lifetime.end.p0(i64 8, ptr %6) #9
  %82 = load ptr, ptr %3, align 8
  ret ptr %82
}