; Function Attrs: nounwind uwtable
define ptr @wolfSSL_CTX_new_ex(ptr noundef %0, ptr noundef %1) local_unnamed_addr #0 {
  %3 = load volatile i32, ptr @initRefCount, align 4, !tbaa !3
  %4 = icmp eq i32 %3, 0
  br i1 %4, label %5, label %.critedge

5:                                                ; preds = %2
  %6 = tail call i32 @wc_LockMutex(ptr noundef nonnull @inits_count_mutex) #22
  %.not.i = icmp eq i32 %6, 0
  br i1 %.not.i, label %7, label %20

7:                                                ; preds = %5
  %8 = load volatile i32, ptr @initRefCount, align 4, !tbaa !3
  %9 = icmp eq i32 %8, 0
  br i1 %9, label %10, label %wolfSSL_Init.exit

10:                                               ; preds = %7
  %11 = tail call i32 @wolfCrypt_Init() #22
  %.not7.i = icmp eq i32 %11, 0
  br i1 %.not7.i, label %12, label %.thread13.i

12:                                               ; preds = %10
  %13 = tail call i32 @wc_InitRwLock(ptr noundef nonnull @session_lock) #22
  %.not8.i = icmp eq i32 %13, 0
  br i1 %.not8.i, label %14, label %.thread13.i

14:                                               ; preds = %12
  store i1 true, ptr @session_lock_valid, align 4
  br label %wolfSSL_Init.exit

.thread13.i:                                      ; preds = %12, %10
  store volatile i32 1, ptr @initRefCount, align 4, !tbaa !3
  %15 = tail call i32 @wc_UnLockMutex(ptr noundef nonnull @inits_count_mutex) #22
  %16 = tail call i32 @wolfSSL_Cleanup()
  br label %20

wolfSSL_Init.exit:                                ; preds = %7, %14
  %17 = load volatile i32, ptr @initRefCount, align 4, !tbaa !3
  %18 = add nsw i32 %17, 1
  store volatile i32 %18, ptr @initRefCount, align 4, !tbaa !3
  %19 = tail call i32 @wc_UnLockMutex(ptr noundef nonnull @inits_count_mutex) #22
  br label %.critedge

20:                                               ; preds = %5, %.thread13.i
  %.not23 = icmp eq ptr %0, null
  br i1 %.not23, label %28, label %21

21:                                               ; preds = %20
  tail call void @wolfSSL_Free(ptr noundef nonnull %0) #22
  br label %28

.critedge:                                        ; preds = %wolfSSL_Init.exit, %2
  %.old = icmp eq ptr %0, null
  br i1 %.old, label %28, label %22

22:                                               ; preds = %.critedge
  %23 = tail call ptr @wolfSSL_Malloc(i64 noundef 304) #22
  %.not24 = icmp eq ptr %23, null
  br i1 %.not24, label %27, label %24

24:                                               ; preds = %22
  %25 = tail call i32 @InitSSL_Ctx(ptr noundef nonnull %23, ptr noundef nonnull %0, ptr noundef %1) #22
  %26 = icmp slt i32 %25, 0
  br i1 %26, label %wolfSSL_CTX_free.exit, label %28

wolfSSL_CTX_free.exit:                            ; preds = %24
  tail call void @FreeSSL_Ctx(ptr noundef nonnull %23) #22
  br label %28

27:                                               ; preds = %22
  tail call void @wolfSSL_Free(ptr noundef nonnull %0) #22
  br label %28

28:                                               ; preds = %21, %20, %27, %wolfSSL_CTX_free.exit, %24, %.critedge
  %.1 = phi ptr [ null, %.critedge ], [ null, %27 ], [ null, %wolfSSL_CTX_free.exit ], [ %23, %24 ], [ null, %20 ], [ null, %21 ]
  ret ptr %.1
}